; Function Attrs: null_pointer_is_valid sspstrong uwtable
define internal void @glxGetTexImage_Reply(ptr noundef %0, ptr noundef readonly captures(none) %1, ptr noundef captures(none) %2, ptr noundef %3, i32 noundef %4) #1 {
  %6 = getelementptr inbounds nuw i8, ptr %1, i64 8
  %7 = load ptr, ptr %6, align 8
  tail call void (ptr, i32, ptr, ...) @col_append_fstr(ptr noundef %7, i32 noundef 25, ptr noundef nonnull @.str.15111)
  %8 = load i32, ptr @hf_x11_reply, align 4
  %9 = tail call fastcc i32 @field8(ptr noundef %0, ptr noundef %2, ptr noundef %3, i32 noundef %8, i32 noundef %4)
  %10 = load i32, ptr @hf_x11_unused, align 4
  %11 = load i32, ptr %2, align 4
  %12 = tail call ptr @proto_tree_add_item(ptr noundef %3, i32 noundef %10, ptr noundef %0, i32 noundef %11, i32 noundef 1, i32 noundef 0)
  %13 = load i32, ptr %2, align 4
  %14 = add i32 %13, 1
  store i32 %14, ptr %2, align 4
  %15 = tail call zeroext i16 @tvb_get_uint16(ptr noundef %0, i32 noundef %14, i32 noundef %4)
  %16 = zext i16 %15 to i32
  %17 = load i32, ptr @hf_x11_reply_sequencenumber, align 4
  %18 = load i32, ptr %2, align 4
  %19 = tail call ptr (ptr, i32, ptr, i32, i32, i32, ptr, ...) @proto_tree_add_uint_format_value(ptr noundef %3, i32 noundef %17, ptr noundef %0, i32 noundef %18, i32 noundef 2, i32 noundef %16, ptr noundef nonnull @.str.15112, i32 noundef %16)
  %20 = load i32, ptr %2, align 4
  %21 = add i32 %20, 2
  store i32 %21, ptr %2, align 4
  %22 = tail call i32 @tvb_get_uint32(ptr noundef %0, i32 noundef %21, i32 noundef %4)
  %23 = load i32, ptr @hf_x11_replylength, align 4
  %24 = load i32, ptr %2, align 4
  %25 = tail call ptr @proto_tree_add_item(ptr noundef %3, i32 noundef %23, ptr noundef %0, i32 noundef %24, i32 noundef 4, i32 noundef %4)
  %26 = load i32, ptr %2, align 4
  %27 = add i32 %26, 4
  store i32 %27, ptr %2, align 4
  %28 = load i32, ptr @hf_x11_unused, align 4
  %29 = tail call ptr @proto_tree_add_item(ptr noundef %3, i32 noundef %28, ptr noundef %0, i32 noundef %27, i32 noundef 8, i32 noundef 0)
  %30 = load i32, ptr %2, align 4
  %31 = add i32 %30, 8
  store i32 %31, ptr %2, align 4
  %32 = load i32, ptr @hf_x11_glx_GetTexImage_reply_width, align 4
  %33 = tail call ptr @proto_tree_add_item(ptr noundef %3, i32 noundef %32, ptr noundef %0, i32 noundef %31, i32 noundef 4, i32 noundef %4)
  %34 = load i32, ptr %2, align 4
  %35 = add i32 %34, 4
  store i32 %35, ptr %2, align 4
  %36 = load i32, ptr @hf_x11_glx_GetTexImage_reply_height, align 4
  %37 = tail call ptr @proto_tree_add_item(ptr noundef %3, i32 noundef %36, ptr noundef %0, i32 noundef %35, i32 noundef 4, i32 noundef %4)
  %38 = load i32, ptr %2, align 4
  %39 = add i32 %38, 4
  store i32 %39, ptr %2, align 4
  %40 = load i32, ptr @hf_x11_glx_GetTexImage_reply_depth, align 4
  %41 = tail call ptr @proto_tree_add_item(ptr noundef %3, i32 noundef %40, ptr noundef %0, i32 noundef %39, i32 noundef 4, i32 noundef %4)
  %42 = load i32, ptr %2, align 4
  %43 = add i32 %42, 4
  store i32 %43, ptr %2, align 4
  %44 = load i32, ptr @hf_x11_unused, align 4
  %45 = tail call ptr @proto_tree_add_item(ptr noundef %3, i32 noundef %44, ptr noundef %0, i32 noundef %43, i32 noundef 4, i32 noundef 0)
  %46 = load i32, ptr %2, align 4
  %47 = add i32 %46, 4
  store i32 %47, ptr %2, align 4
  %48 = load i32, ptr @hf_x11_glx_GetTexImage_reply_data, align 4
  %49 = shl i32 %22, 2
  %spec.store.select.i = tail call i32 @llvm.smax.i32(i32 %49, i32 1)
  %50 = tail call ptr @proto_tree_add_item(ptr noundef %3, i32 noundef %48, ptr noundef %0, i32 noundef %47, i32 noundef %spec.store.select.i, i32 noundef %4)
  %51 = load i32, ptr %2, align 4
  %52 = add i32 %51, %spec.store.select.i
  store i32 %52, ptr %2, align 4
  ret void
}